; Function Attrs: cold mustprogress noreturn uwtable
define noalias noundef nonnull ptr @lean_llvm_build_mul(i64 noundef %0, i64 noundef %1, i64 noundef %2, i64 noundef %3, ptr noundef readnone captures(none) %4, ptr noundef readnone captures(none) %5) local_unnamed_addr #1 personality ptr @__gxx_personality_v0 {
  tail call void @_ZN4lean26notify_assertion_violationEPKciS1_(ptr noundef nonnull @.str, i32 noundef 791, ptr noundef nonnull @.str.1)
  %7 = tail call ptr @__cxa_allocate_exception(i64 40) #11
  %8 = getelementptr inbounds nuw i8, ptr %7, i64 8
  %9 = getelementptr inbounds nuw i8, ptr %7, i64 24
  store ptr %9, ptr %8, align 8, !tbaa !10
  %10 = getelementptr inbounds nuw i8, ptr %7, i64 16
  store i64 0, ptr %10, align 8, !tbaa !13
  store i8 0, ptr %9, align 1, !tbaa !16
  store ptr getelementptr inbounds nuw inrange(-16, 24) (i8, ptr @_ZTVN4lean19unreachable_reachedE, i64 16), ptr %7, align 8, !tbaa !17
  tail call void @__cxa_throw(ptr nonnull %7, ptr nonnull @_ZTIN4lean19unreachable_reachedE, ptr nonnull @_ZN4lean9throwableD2Ev) #12
  unreachable
}